Certificate:
    Data:
        Version: 3 (0x2)
        Serial Number:
            e1:49:e2:9b:56:93:3f:8a:95:fe:d7:b6:2b:fa:8b:8b
        Signature Algorithm: sha256WithRSAEncryption
        Issuer: CN=CoolestProjects BE Test
        Validity
            Not Before: Feb 22 11:02:33 2021 GMT
            Not After : May 28 11:02:33 2023 GMT
        Subject: CN=account1.blob.coolestazure.localhost
        Subject Public Key Info:
            Public Key Algorithm: rsaEncryption
                RSA Public-Key: (2048 bit)
                Modulus:
                    00:c5:cc:29:f0:c6:c3:1a:38:e6:bf:65:ad:81:a4:
                    ea:cf:15:88:09:b8:ef:d5:29:a2:0c:d6:8d:a8:e6:
                    69:7c:4a:75:84:dc:3e:40:6c:94:b8:80:12:2c:74:
                    fc:c9:6b:41:3d:c7:eb:5c:93:cc:96:48:b5:f6:d6:
                    ed:f9:2a:28:16:6d:7c:92:a7:08:3a:f2:6e:06:32:
                    3c:41:bb:df:86:a8:cc:2a:8e:f3:bd:4c:c2:98:78:
                    74:c2:47:e7:12:fe:cd:76:e8:f8:c2:33:19:1b:87:
                    fc:16:51:7b:d8:86:c4:59:be:b4:b1:f2:91:99:47:
                    d3:31:53:8c:68:ed:b3:8f:3f:bc:70:1b:70:16:4f:
                    32:45:ed:03:06:ac:d0:df:ce:78:43:99:4f:b6:56:
                    e8:1c:77:39:8e:aa:84:ad:41:59:bd:3b:4a:e7:e0:
                    1f:c2:86:01:8e:ba:89:95:33:1f:d4:ef:62:9a:29:
                    35:b5:7a:ac:4b:8b:2a:ec:b0:ed:af:29:55:c5:0b:
                    37:42:84:4b:2a:28:d1:13:2b:a6:56:46:95:f6:e0:
                    32:b6:d2:cc:1f:94:0a:7d:eb:d9:4f:54:c3:a4:33:
                    c0:93:87:1b:c0:29:3b:f1:c6:01:1d:cf:f7:6a:a1:
                    ee:83:e0:98:00:0c:cd:83:8f:5e:f2:ec:81:38:3a:
                    0d:6b
                Exponent: 65537 (0x10001)
        X509v3 extensions:
            X509v3 Basic Constraints: 
                CA:FALSE
            X509v3 Subject Key Identifier: 
                EC:CE:20:58:61:77:F6:60:30:1A:8D:02:E9:E9:58:07:D1:BF:03:24
            X509v3 Authority Key Identifier: 
                keyid:17:B2:BF:0B:7B:BC:FC:51:64:57:6C:16:81:9B:F5:D7:EA:8E:08:A1
                DirName:/CN=CoolestProjects BE Test
                serial:26:50:D6:01:1C:3E:0F:7D:D8:61:0F:3E:0F:C3:E0:67:1D:95:88:4A

            X509v3 Extended Key Usage: 
                TLS Web Server Authentication
            X509v3 Key Usage: 
                Digital Signature, Key Encipherment
            X509v3 Subject Alternative Name: 
                DNS:account1.blob.coolestazure.localhost
    Signature Algorithm: sha256WithRSAEncryption
         5c:d2:0d:5c:09:82:d4:37:45:41:ff:b8:f0:03:bc:c2:86:43:
         f9:f7:25:59:79:92:b9:7a:67:7c:0a:4c:c4:25:4e:19:b9:09:
         6a:20:bb:51:81:82:58:b3:2b:61:ee:55:68:93:28:55:73:cf:
         ce:f9:5a:01:32:c2:f2:59:95:8a:88:1b:b8:5f:4a:26:aa:03:
         c9:09:c4:c5:ba:e2:1b:20:79:26:2b:ac:72:ba:08:fe:7e:51:
         5d:d6:dd:91:20:29:a6:35:ec:5f:88:39:15:44:20:57:b8:fb:
         2d:73:22:3a:82:65:a0:a6:eb:34:96:a5:ff:e7:01:17:e8:e9:
         a0:c3:87:d6:79:3e:c8:aa:5b:b6:b2:ff:96:cb:77:0d:3d:5f:
         54:89:40:ac:0e:6e:92:0d:79:c2:cc:5c:f8:fd:13:5a:a3:07:
         3c:b6:0f:09:84:d6:3e:1c:08:0a:2b:cb:89:e5:c6:1a:02:67:
         ca:a2:90:f4:80:40:f3:64:24:90:2a:c3:a9:a2:83:21:78:76:
         7a:92:a0:5b:62:f8:e7:48:65:ab:50:dd:46:79:fc:6c:5f:db:
         eb:4d:87:91:33:f3:38:f2:e8:c9:5f:ed:c2:80:62:c1:86:46:
         41:9d:47:18:91:eb:89:86:88:bc:bc:5b:22:cf:c4:f3:0c:90:
         66:a7:e0:8d
-----BEGIN CERTIFICATE-----
MIIDvDCCAqSgAwIBAgIRAOFJ4ptWkz+Klf7Xtiv6i4swDQYJKoZIhvcNAQELBQAw
IjEgMB4GA1UEAwwXQ29vbGVzdFByb2plY3RzIEJFIFRlc3QwHhcNMjEwMjIyMTEw
MjMzWhcNMjMwNTI4MTEwMjMzWjAvMS0wKwYDVQQDDCRhY2NvdW50MS5ibG9iLmNv
b2xlc3RhenVyZS5sb2NhbGhvc3QwggEiMA0GCSqGSIb3DQEBAQUAA4IBDwAwggEK
AoIBAQDFzCnwxsMaOOa/Za2BpOrPFYgJuO/VKaIM1o2o5ml8SnWE3D5AbJS4gBIs
dPzJa0E9x+tck8yWSLX21u35KigWbXySpwg68m4GMjxBu9+GqMwqjvO9TMKYeHTC
R+cS/s126PjCMxkbh/wWUXvYhsRZvrSx8pGZR9MxU4xo7bOPP7xwG3AWTzJF7QMG
rNDfznhDmU+2VugcdzmOqoStQVm9O0rn4B/ChgGOuomVMx/U72KaKTW1eqxLiyrs
sO2vKVXFCzdChEsqKNETK6ZWRpX24DK20swflAp969lPVMOkM8CThxvAKTvxxgEd
z/dqoe6D4JgADM2Dj17y7IE4Og1rAgMBAAGjgd8wgdwwCQYDVR0TBAIwADAdBgNV
HQ4EFgQU7M4gWGF39mAwGo0C6elYB9G/AyQwXQYDVR0jBFYwVIAUF7K/C3u8/FFk
V2wWgZv11+qOCKGhJqQkMCIxIDAeBgNVBAMMF0Nvb2xlc3RQcm9qZWN0cyBCRSBU
ZXN0ghQmUNYBHD4PfdhhDz4Pw+BnHZWISjATBgNVHSUEDDAKBggrBgEFBQcDATAL
BgNVHQ8EBAMCBaAwLwYDVR0RBCgwJoIkYWNjb3VudDEuYmxvYi5jb29sZXN0YXp1
cmUubG9jYWxob3N0MA0GCSqGSIb3DQEBCwUAA4IBAQBc0g1cCYLUN0VB/7jwA7zC
hkP59yVZeZK5emd8CkzEJU4ZuQlqILtRgYJYsyth7lVokyhVc8/O+VoBMsLyWZWK
iBu4X0omqgPJCcTFuuIbIHkmK6xyugj+flFd1t2RICmmNexfiDkVRCBXuPstcyI6
gmWgpus0lqX/5wEX6Omgw4fWeT7Iqlu2sv+Wy3cNPV9UiUCsDm6SDXnCzFz4/RNa
owc8tg8JhNY+HAgKK8uJ5cYaAmfKopD0gEDzZCSQKsOpooMheHZ6kqBbYvjnSGWr
UN1GefxsX9vrTYeRM/M48ujJX+3CgGLBhkZBnUcYkeuJhoi8vFsiz8TzDJBmp+CN
-----END CERTIFICATE-----
