Certificate:
    Data:
        Version: 3 (0x2)
        Serial Number:
            1a:16:4a:b4:66:61:23:17:1f:a1:02:f3:93:9d:a3:16
        Signature Algorithm: sha256WithRSAEncryption
        Issuer: CN=CoolestProjects BE Test
        Validity
            Not Before: Jan 24 21:19:06 2024 GMT
            Not After : Jan  8 21:19:06 2027 GMT
        Subject: CN=app.coolestprojects.localhost
        Subject Public Key Info:
            Public Key Algorithm: rsaEncryption
                RSA Public-Key: (2048 bit)
                Modulus:
                    00:b5:22:f2:ca:91:09:0c:38:d1:28:d9:c7:15:59:
                    17:43:da:49:ed:d4:d3:96:11:89:f9:64:f5:c9:98:
                    9a:3f:07:f6:23:54:d9:3f:8f:d1:07:80:f2:b2:5b:
                    ba:ae:26:34:e5:1a:ee:89:a6:5e:87:46:9e:c9:ad:
                    f1:59:0d:97:49:a6:27:00:19:a5:82:55:38:1c:14:
                    56:af:38:77:f4:50:c9:4b:99:d7:e7:50:39:fe:c8:
                    a9:7f:2b:9c:cf:d8:8b:9c:21:99:5d:75:ce:27:36:
                    32:18:0e:6c:e5:60:fe:b6:62:bb:b0:9f:c5:de:a9:
                    b5:2f:5e:3c:7e:61:ae:2e:eb:b6:ca:da:7f:83:03:
                    3c:ed:97:d0:f2:09:81:19:7f:1c:dd:8f:31:3a:e4:
                    02:ed:17:24:c8:ec:db:96:78:f0:a0:75:bc:ed:63:
                    f7:d4:4b:68:65:d2:2d:f5:4c:71:df:11:7d:c4:39:
                    64:c0:39:7d:a0:b0:47:b7:46:20:6a:54:bb:e5:09:
                    e0:a0:d8:8b:ea:55:a9:56:5c:03:a1:67:33:a9:f1:
                    05:25:00:04:85:e6:aa:d1:84:8f:27:52:5f:25:15:
                    f0:ee:8b:b3:ac:ea:22:14:a8:3c:b8:10:4d:0b:2c:
                    73:c6:1e:d3:90:41:3c:22:97:ed:d4:ac:d3:a0:90:
                    d5:6b
                Exponent: 65537 (0x10001)
        X509v3 extensions:
            X509v3 Basic Constraints: 
                CA:FALSE
            X509v3 Subject Key Identifier: 
                57:9F:95:7B:58:1E:C1:6B:CB:CE:74:43:B8:2C:0A:EA:CD:21:5D:2D
            X509v3 Authority Key Identifier: 
                keyid:17:B2:BF:0B:7B:BC:FC:51:64:57:6C:16:81:9B:F5:D7:EA:8E:08:A1
                DirName:/CN=CoolestProjects BE Test
                serial:26:50:D6:01:1C:3E:0F:7D:D8:61:0F:3E:0F:C3:E0:67:1D:95:88:4A

            X509v3 Extended Key Usage: 
                TLS Web Server Authentication
            X509v3 Key Usage: 
                Digital Signature, Key Encipherment
            X509v3 Subject Alternative Name: 
                DNS:app.coolestprojects.localhost
    Signature Algorithm: sha256WithRSAEncryption
         44:7a:3b:83:3a:bb:d9:40:70:36:80:c2:4a:ea:27:42:d4:01:
         8b:dc:09:b0:53:c8:a3:c1:26:c0:4f:a5:17:44:ab:00:6a:51:
         4f:cb:ce:da:4f:5d:64:1a:be:d2:6d:5d:ed:40:79:ec:73:f4:
         c4:6d:0e:3d:b8:cd:df:bf:4a:d0:9b:a6:de:fc:1c:46:b1:09:
         a8:9b:de:39:73:4b:f1:43:09:43:7a:c1:04:e0:5a:5a:a2:57:
         87:cd:42:75:d0:80:81:07:7c:8d:2e:83:e4:6b:f7:00:b9:68:
         f7:db:3f:33:44:ea:a6:95:ed:a6:bb:74:42:36:5b:51:25:2b:
         27:0c:c8:59:1b:51:8a:26:a6:ce:90:87:1c:c9:f9:f8:04:6b:
         95:b7:a3:74:ff:75:ad:28:34:ff:24:40:ff:9a:46:aa:06:14:
         05:81:ea:67:90:fb:64:1f:15:cf:82:33:b3:90:3a:36:10:43:
         1a:c5:35:66:34:0f:26:c4:d8:d3:32:df:43:7e:46:34:8a:5e:
         18:9d:77:ab:b0:15:37:b4:98:b9:f2:50:ad:fd:5c:35:09:5d:
         23:47:10:4a:06:04:b6:ac:37:bd:3e:d1:d5:71:5d:77:24:91:
         87:48:38:01:78:a7:f6:a6:03:7a:5c:c9:ec:40:7d:77:ba:6e:
         3a:bd:c4:94
-----BEGIN CERTIFICATE-----
MIIDrTCCApWgAwIBAgIQGhZKtGZhIxcfoQLzk52jFjANBgkqhkiG9w0BAQsFADAi
MSAwHgYDVQQDDBdDb29sZXN0UHJvamVjdHMgQkUgVGVzdDAeFw0yNDAxMjQyMTE5
MDZaFw0yNzAxMDgyMTE5MDZaMCgxJjAkBgNVBAMMHWFwcC5jb29sZXN0cHJvamVj
dHMubG9jYWxob3N0MIIBIjANBgkqhkiG9w0BAQEFAAOCAQ8AMIIBCgKCAQEAtSLy
ypEJDDjRKNnHFVkXQ9pJ7dTTlhGJ+WT1yZiaPwf2I1TZP4/RB4Dyslu6riY05Rru
iaZeh0aeya3xWQ2XSaYnABmlglU4HBRWrzh39FDJS5nX51A5/sipfyucz9iLnCGZ
XXXOJzYyGA5s5WD+tmK7sJ/F3qm1L148fmGuLuu2ytp/gwM87ZfQ8gmBGX8c3Y8x
OuQC7RckyOzblnjwoHW87WP31EtoZdIt9Uxx3xF9xDlkwDl9oLBHt0YgalS75Qng
oNiL6lWpVlwDoWczqfEFJQAEheaq0YSPJ1JfJRXw7ouzrOoiFKg8uBBNCyxzxh7T
kEE8Ipft1KzToJDVawIDAQABo4HYMIHVMAkGA1UdEwQCMAAwHQYDVR0OBBYEFFef
lXtYHsFry850Q7gsCurNIV0tMF0GA1UdIwRWMFSAFBeyvwt7vPxRZFdsFoGb9dfq
jgihoSakJDAiMSAwHgYDVQQDDBdDb29sZXN0UHJvamVjdHMgQkUgVGVzdIIUJlDW
ARw+D33YYQ8+D8PgZx2ViEowEwYDVR0lBAwwCgYIKwYBBQUHAwEwCwYDVR0PBAQD
AgWgMCgGA1UdEQQhMB+CHWFwcC5jb29sZXN0cHJvamVjdHMubG9jYWxob3N0MA0G
CSqGSIb3DQEBCwUAA4IBAQBEejuDOrvZQHA2gMJK6idC1AGL3AmwU8ijwSbAT6UX
RKsAalFPy87aT11kGr7SbV3tQHnsc/TEbQ49uM3fv0rQm6be/BxGsQmom945c0vx
QwlDesEE4FpaoleHzUJ10ICBB3yNLoPka/cAuWj32z8zROqmle2mu3RCNltRJSsn
DMhZG1GKJqbOkIccyfn4BGuVt6N0/3WtKDT/JED/mkaqBhQFgepnkPtkHxXPgjOz
kDo2EEMaxTVmNA8mxNjTMt9DfkY0il4YnXersBU3tJi58lCt/Vw1CV0jRxBKBgS2
rDe9PtHVcV13JJGHSDgBeKf2pgN6XMnsQH13um46vcSU
-----END CERTIFICATE-----
