Certificate:
    Data:
        Version: 3 (0x2)
        Serial Number:
            5c:4d:e4:87:a2:06:41:70:17:e0:7f:05:6b:79:5b
        Signature Algorithm: sha256WithRSAEncryption
        Issuer: CN=CoolestProjects BE Test
        Validity
            Not Before: Feb  2 17:40:37 2021 GMT
            Not After : May  8 17:40:37 2023 GMT
        Subject: CN=backend.coolestprojects.localhost
        Subject Public Key Info:
            Public Key Algorithm: rsaEncryption
                RSA Public-Key: (2048 bit)
                Modulus:
                    00:ef:84:ee:70:c3:c2:de:ec:09:4c:78:b9:4e:71:
                    5b:55:04:8a:95:42:4f:6e:a2:e8:60:34:a2:3d:a7:
                    1f:b7:bd:8e:28:ab:40:5f:7f:11:4d:62:1d:74:b9:
                    24:82:ce:5c:f3:fe:85:a8:1e:88:80:29:39:09:c7:
                    8e:4b:a7:24:22:de:c9:22:ff:97:08:69:ad:74:6e:
                    0b:43:a9:c9:0b:f2:a5:a3:7a:7e:ec:ac:9d:7b:f0:
                    fb:b2:00:eb:21:72:24:b2:f6:2b:8d:c5:f4:41:28:
                    2b:3d:7a:fd:af:d2:d3:d5:1a:98:a6:c1:59:9f:97:
                    35:52:32:71:55:0d:1c:64:4c:8e:46:f1:1a:36:e4:
                    41:99:b8:35:ce:f8:29:8e:60:56:b3:5a:ec:fa:4b:
                    34:b4:9a:a6:8c:76:8d:4c:81:df:ec:6f:ef:52:8a:
                    9c:5a:f6:57:fe:82:a1:30:6d:70:36:9b:d8:99:02:
                    4f:f9:01:b2:ca:90:b8:6d:89:80:ea:2f:bb:32:75:
                    45:34:c0:62:60:a5:25:8e:ad:f9:0f:79:8e:95:9d:
                    51:5b:e6:e2:f1:1e:34:58:45:d4:1a:ec:6a:bc:cb:
                    cd:55:ec:b6:74:00:8f:e1:ca:b7:26:d8:b1:37:a0:
                    a3:86:1c:79:42:10:c9:f4:b2:be:92:45:3f:84:cb:
                    53:27
                Exponent: 65537 (0x10001)
        X509v3 extensions:
            X509v3 Basic Constraints: 
                CA:FALSE
            X509v3 Subject Key Identifier: 
                18:1E:53:52:FF:69:D5:8A:F9:71:63:B1:EF:DE:B3:A1:F9:73:12:BE
            X509v3 Authority Key Identifier: 
                keyid:17:B2:BF:0B:7B:BC:FC:51:64:57:6C:16:81:9B:F5:D7:EA:8E:08:A1
                DirName:/CN=CoolestProjects BE Test
                serial:26:50:D6:01:1C:3E:0F:7D:D8:61:0F:3E:0F:C3:E0:67:1D:95:88:4A

            X509v3 Extended Key Usage: 
                TLS Web Server Authentication
            X509v3 Key Usage: 
                Digital Signature, Key Encipherment
            X509v3 Subject Alternative Name: 
                DNS:backend.coolestprojects.localhost
    Signature Algorithm: sha256WithRSAEncryption
         50:62:da:07:6b:3b:49:90:c3:a6:c1:19:0f:24:5b:ec:8e:cc:
         6c:e2:a6:f3:e7:21:93:8c:68:61:2d:b2:db:3a:4b:cc:11:3f:
         1d:1e:b8:cc:af:8d:84:73:93:b3:72:c5:63:c9:e8:6a:6a:f2:
         8d:a9:75:c5:c1:7d:69:50:91:67:48:1c:ac:08:e9:25:a0:86:
         a1:c6:52:13:7f:14:b6:ff:0e:e5:70:fa:b7:c3:d9:14:2c:3a:
         5f:fc:fe:6e:08:de:bb:be:af:7e:90:41:15:0e:46:41:68:84:
         1d:6f:25:e0:0f:56:7b:f2:12:fa:78:1c:23:54:d4:b5:36:e6:
         2b:ed:2d:97:30:3e:b2:5f:b3:28:91:9a:88:03:b4:5b:d2:c1:
         6a:b3:1d:0d:d9:84:83:89:39:81:a6:08:05:03:0a:56:6b:b9:
         68:dc:d9:0e:9c:1e:21:42:d3:e3:dd:07:69:db:83:cb:13:a6:
         f4:87:0b:64:35:b4:db:f5:d1:38:65:f7:4e:a4:d4:25:17:19:
         33:c9:d9:64:0e:ba:14:ed:48:ab:37:30:9b:cc:73:36:af:11:
         35:19:97:cf:03:9c:09:ae:c4:b4:09:58:2e:78:c6:04:2f:f6:
         83:9a:cb:b2:65:35:d9:37:f0:42:02:38:2b:13:3a:bb:bf:36:
         fe:d8:0c:42
-----BEGIN CERTIFICATE-----
MIIDtDCCApygAwIBAgIPXE3kh6IGQXAX4H8Fa3lbMA0GCSqGSIb3DQEBCwUAMCIx
IDAeBgNVBAMMF0Nvb2xlc3RQcm9qZWN0cyBCRSBUZXN0MB4XDTIxMDIwMjE3NDAz
N1oXDTIzMDUwODE3NDAzN1owLDEqMCgGA1UEAwwhYmFja2VuZC5jb29sZXN0cHJv
amVjdHMubG9jYWxob3N0MIIBIjANBgkqhkiG9w0BAQEFAAOCAQ8AMIIBCgKCAQEA
74TucMPC3uwJTHi5TnFbVQSKlUJPbqLoYDSiPacft72OKKtAX38RTWIddLkkgs5c
8/6FqB6IgCk5CceOS6ckIt7JIv+XCGmtdG4LQ6nJC/Klo3p+7Kyde/D7sgDrIXIk
svYrjcX0QSgrPXr9r9LT1RqYpsFZn5c1UjJxVQ0cZEyORvEaNuRBmbg1zvgpjmBW
s1rs+ks0tJqmjHaNTIHf7G/vUoqcWvZX/oKhMG1wNpvYmQJP+QGyypC4bYmA6i+7
MnVFNMBiYKUljq35D3mOlZ1RW+bi8R40WEXUGuxqvMvNVey2dACP4cq3JtixN6Cj
hhx5QhDJ9LK+kkU/hMtTJwIDAQABo4HcMIHZMAkGA1UdEwQCMAAwHQYDVR0OBBYE
FBgeU1L/adWK+XFjse/es6H5cxK+MF0GA1UdIwRWMFSAFBeyvwt7vPxRZFdsFoGb
9dfqjgihoSakJDAiMSAwHgYDVQQDDBdDb29sZXN0UHJvamVjdHMgQkUgVGVzdIIU
JlDWARw+D33YYQ8+D8PgZx2ViEowEwYDVR0lBAwwCgYIKwYBBQUHAwEwCwYDVR0P
BAQDAgWgMCwGA1UdEQQlMCOCIWJhY2tlbmQuY29vbGVzdHByb2plY3RzLmxvY2Fs
aG9zdDANBgkqhkiG9w0BAQsFAAOCAQEAUGLaB2s7SZDDpsEZDyRb7I7MbOKm8+ch
k4xoYS2y2zpLzBE/HR64zK+NhHOTs3LFY8noamryjal1xcF9aVCRZ0gcrAjpJaCG
ocZSE38Utv8O5XD6t8PZFCw6X/z+bgjeu76vfpBBFQ5GQWiEHW8l4A9We/IS+ngc
I1TUtTbmK+0tlzA+sl+zKJGaiAO0W9LBarMdDdmEg4k5gaYIBQMKVmu5aNzZDpwe
IULT490HaduDyxOm9IcLZDW02/XROGX3TqTUJRcZM8nZZA66FO1Iqzcwm8xzNq8R
NRmXzwOcCa7EtAlYLnjGBC/2g5rLsmU12TfwQgI4KxM6u782/tgMQg==
-----END CERTIFICATE-----
