Certificate:
    Data:
        Version: 3 (0x2)
        Serial Number:
            70:e9:58:4a:52:79:ae:10:25:c8:ba:bd:c4:48:aa
        Signature Algorithm: sha256WithRSAEncryption
        Issuer: CN=CoolestProjects BE Test
        Validity
            Not Before: Jan  9 23:15:55 2022 GMT
            Not After : Apr 13 23:15:55 2024 GMT
        Subject: CN=screen.coolestprojects.localhost
        Subject Public Key Info:
            Public Key Algorithm: rsaEncryption
                RSA Public-Key: (2048 bit)
                Modulus:
                    00:d1:87:6f:f8:66:90:d0:14:36:ec:2d:c1:97:94:
                    12:8c:d8:59:b2:67:9b:c2:80:81:66:62:f4:11:30:
                    ed:1f:a5:3f:8f:a9:0d:eb:d7:4e:91:1a:39:fb:df:
                    ee:a0:08:47:4a:8a:1a:12:da:52:14:b0:12:16:07:
                    32:45:fb:2c:90:51:53:94:61:23:45:ec:79:bb:cc:
                    bd:2c:2e:71:47:60:71:f5:38:68:fd:7d:d4:7d:5c:
                    55:d2:3b:7c:18:0b:f2:08:aa:08:b9:d5:44:7f:9f:
                    2f:16:90:43:a3:bb:9a:d4:fd:f4:51:d4:04:75:17:
                    e1:55:b9:77:89:b3:0f:e5:92:62:9f:8f:fd:f7:c9:
                    da:b1:f9:4c:0e:ac:9c:71:6c:4a:9f:5e:85:5a:e2:
                    03:3d:50:61:10:b3:54:af:72:7d:9b:0c:cf:a1:19:
                    ed:7b:2a:7a:3d:dd:bf:e1:42:c2:51:f1:95:86:3c:
                    d4:b8:66:d8:08:f7:e9:4d:fa:86:a9:d1:7e:03:28:
                    cd:15:a8:20:85:26:b3:4f:95:0e:6d:10:eb:2f:d2:
                    86:fd:2c:57:2b:f4:a9:75:2a:fe:0a:a1:95:43:ac:
                    2e:81:46:8c:6a:6a:76:06:a9:e7:58:da:25:7a:92:
                    1c:f5:10:4c:bf:1e:27:53:99:46:a4:7a:a6:36:89:
                    fe:0f
                Exponent: 65537 (0x10001)
        X509v3 extensions:
            X509v3 Basic Constraints: 
                CA:FALSE
            X509v3 Subject Key Identifier: 
                65:6A:98:28:85:D8:2F:3E:0D:45:0D:77:CB:30:81:EE:9B:F4:77:95
            X509v3 Authority Key Identifier: 
                keyid:17:B2:BF:0B:7B:BC:FC:51:64:57:6C:16:81:9B:F5:D7:EA:8E:08:A1
                DirName:/CN=CoolestProjects BE Test
                serial:26:50:D6:01:1C:3E:0F:7D:D8:61:0F:3E:0F:C3:E0:67:1D:95:88:4A

            X509v3 Extended Key Usage: 
                TLS Web Server Authentication
            X509v3 Key Usage: 
                Digital Signature, Key Encipherment
            X509v3 Subject Alternative Name: 
                DNS:screen.coolestprojects.localhost
    Signature Algorithm: sha256WithRSAEncryption
         50:81:e6:60:ee:b2:5e:43:45:b1:63:0a:07:b0:d2:a8:ac:fd:
         ea:e6:7b:76:09:7e:22:ef:df:06:e2:cd:7c:1d:88:a1:22:4c:
         0a:5f:19:1f:f2:3c:6a:41:09:84:18:d6:71:d1:1b:1e:f6:03:
         7b:6c:72:e0:17:3a:42:fa:28:8a:fc:8a:cb:9c:52:9f:0d:c7:
         26:ff:a9:73:b1:af:d3:4e:bc:ba:d5:81:65:04:22:28:71:4a:
         a8:50:95:52:71:03:f8:1e:16:ab:f3:07:ce:d4:d1:02:cb:3d:
         68:bd:b5:c4:ff:67:bf:09:5d:9b:63:3e:52:e1:7a:b4:ce:4a:
         22:5c:a4:7c:c9:75:7f:03:07:fa:a1:68:0d:6c:07:01:5a:4a:
         c0:f7:fd:12:be:a8:c8:97:2d:cf:4a:98:b8:13:4c:ab:2f:b7:
         af:f8:4f:80:a3:85:98:1d:9c:b4:09:f1:a2:79:04:d4:cf:91:
         1c:21:7c:20:25:ef:e0:16:b4:c8:71:99:95:e8:d8:06:d6:d9:
         32:05:0d:e6:bb:9e:12:49:79:d9:b6:8a:19:c1:b4:da:de:17:
         e7:c0:82:e1:8d:fb:21:a1:ce:9d:18:73:df:68:7c:a8:09:09:
         90:b7:35:45:74:d6:7a:c3:df:99:06:86:17:5c:fc:8f:5a:dc:
         ce:dd:ac:4d
-----BEGIN CERTIFICATE-----
MIIDsjCCApqgAwIBAgIPcOlYSlJ5rhAlyLq9xEiqMA0GCSqGSIb3DQEBCwUAMCIx
IDAeBgNVBAMMF0Nvb2xlc3RQcm9qZWN0cyBCRSBUZXN0MB4XDTIyMDEwOTIzMTU1
NVoXDTI0MDQxMzIzMTU1NVowKzEpMCcGA1UEAwwgc2NyZWVuLmNvb2xlc3Rwcm9q
ZWN0cy5sb2NhbGhvc3QwggEiMA0GCSqGSIb3DQEBAQUAA4IBDwAwggEKAoIBAQDR
h2/4ZpDQFDbsLcGXlBKM2FmyZ5vCgIFmYvQRMO0fpT+PqQ3r106RGjn73+6gCEdK
ihoS2lIUsBIWBzJF+yyQUVOUYSNF7Hm7zL0sLnFHYHH1OGj9fdR9XFXSO3wYC/II
qgi51UR/ny8WkEOju5rU/fRR1AR1F+FVuXeJsw/lkmKfj/33ydqx+UwOrJxxbEqf
XoVa4gM9UGEQs1Svcn2bDM+hGe17Kno93b/hQsJR8ZWGPNS4ZtgI9+lN+oap0X4D
KM0VqCCFJrNPlQ5tEOsv0ob9LFcr9Kl1Kv4KoZVDrC6BRoxqanYGqedY2iV6khz1
EEy/HidTmUakeqY2if4PAgMBAAGjgdswgdgwCQYDVR0TBAIwADAdBgNVHQ4EFgQU
ZWqYKIXYLz4NRQ13yzCB7pv0d5UwXQYDVR0jBFYwVIAUF7K/C3u8/FFkV2wWgZv1
1+qOCKGhJqQkMCIxIDAeBgNVBAMMF0Nvb2xlc3RQcm9qZWN0cyBCRSBUZXN0ghQm
UNYBHD4PfdhhDz4Pw+BnHZWISjATBgNVHSUEDDAKBggrBgEFBQcDATALBgNVHQ8E
BAMCBaAwKwYDVR0RBCQwIoIgc2NyZWVuLmNvb2xlc3Rwcm9qZWN0cy5sb2NhbGhv
c3QwDQYJKoZIhvcNAQELBQADggEBAFCB5mDusl5DRbFjCgew0qis/erme3YJfiLv
3wbizXwdiKEiTApfGR/yPGpBCYQY1nHRGx72A3tscuAXOkL6KIr8isucUp8Nxyb/
qXOxr9NOvLrVgWUEIihxSqhQlVJxA/geFqvzB87U0QLLPWi9tcT/Z78JXZtjPlLh
erTOSiJcpHzJdX8DB/qhaA1sBwFaSsD3/RK+qMiXLc9KmLgTTKsvt6/4T4CjhZgd
nLQJ8aJ5BNTPkRwhfCAl7+AWtMhxmZXo2AbW2TIFDea7nhJJedm2ihnBtNreF+fA
guGN+yGhzp0Yc99ofKgJCZC3NUV01nrD35kGhhdc/I9a3M7drE0=
-----END CERTIFICATE-----
