Certificate:
    Data:
        Version: 3 (0x2)
        Serial Number:
            96:6f:89:37:70:22:09:56:a1:e3:f2:1b:75:90:44:50
        Signature Algorithm: sha256WithRSAEncryption
        Issuer: CN=CoolestProjects BE Test
        Validity
            Not Before: Jan 24 21:05:21 2024 GMT
            Not After : Jan  8 21:05:21 2027 GMT
        Subject: CN=account1.blob.coolestazure.localhost
        Subject Public Key Info:
            Public Key Algorithm: rsaEncryption
                RSA Public-Key: (2048 bit)
                Modulus:
                    00:97:55:48:b7:0d:e1:e2:09:e6:c9:7f:5b:21:19:
                    ab:b9:a1:79:f9:6b:5e:84:bb:c3:37:0c:92:e0:d5:
                    fe:ce:42:73:8e:4f:8f:9d:65:1d:7d:dd:81:5e:ba:
                    39:f3:2c:64:a4:0a:db:50:60:19:40:47:0a:b3:92:
                    0f:24:55:81:20:4c:df:be:11:5f:c8:d3:77:ab:b6:
                    0a:eb:ac:ad:34:84:8d:d9:36:f6:97:13:5a:63:e6:
                    ae:a8:e0:ef:40:48:e1:94:d7:dd:c9:56:93:1c:75:
                    a6:7c:51:86:57:cf:37:9e:3e:d6:a7:fe:26:b0:1a:
                    77:60:c5:d1:3e:0a:9e:8d:67:de:69:4b:c3:3e:ba:
                    a3:af:e8:30:5f:ea:f7:98:a7:8c:b6:74:43:41:16:
                    77:df:95:71:6e:2b:3e:34:93:e9:a4:95:ad:b2:70:
                    b7:67:9a:d3:33:a5:dd:93:0b:c2:b3:8c:97:14:79:
                    93:ad:03:ae:01:0c:a7:17:44:78:c2:6f:96:91:30:
                    8f:24:45:6a:b0:08:78:f7:be:92:10:08:b2:90:e1:
                    34:05:43:2b:90:85:d4:21:32:7e:9a:20:99:41:bb:
                    89:de:24:3d:0e:b0:ec:a4:92:0f:38:57:bf:64:40:
                    c7:3c:6d:9f:fe:08:ac:74:e5:9c:80:47:da:02:25:
                    2d:b3
                Exponent: 65537 (0x10001)
        X509v3 extensions:
            X509v3 Basic Constraints: 
                CA:FALSE
            X509v3 Subject Key Identifier: 
                86:39:A1:47:CF:53:61:7E:BA:F9:D0:ED:CF:18:95:60:CF:51:F0:29
            X509v3 Authority Key Identifier: 
                keyid:17:B2:BF:0B:7B:BC:FC:51:64:57:6C:16:81:9B:F5:D7:EA:8E:08:A1
                DirName:/CN=CoolestProjects BE Test
                serial:26:50:D6:01:1C:3E:0F:7D:D8:61:0F:3E:0F:C3:E0:67:1D:95:88:4A

            X509v3 Extended Key Usage: 
                TLS Web Server Authentication
            X509v3 Key Usage: 
                Digital Signature, Key Encipherment
            X509v3 Subject Alternative Name: 
                DNS:account1.blob.coolestazure.localhost
    Signature Algorithm: sha256WithRSAEncryption
         34:a5:e6:79:f2:13:01:fe:38:3c:23:83:95:9c:30:05:1b:c3:
         3a:30:d4:ca:57:d8:03:26:f2:43:04:ca:86:a4:b8:ba:7f:ea:
         3d:35:d1:8c:d7:1a:b7:56:64:8d:22:1e:58:42:58:65:88:ed:
         13:5e:47:ec:3e:ae:45:b3:eb:6b:c8:c3:97:df:aa:4b:0e:4b:
         00:af:aa:30:b7:ad:b7:fb:6e:d2:30:3b:80:df:09:c6:11:26:
         5d:87:06:01:e4:ca:0c:58:32:9a:a7:69:64:1b:46:d8:a0:b0:
         c6:af:d3:bf:0b:5d:38:77:7c:e1:5b:a9:40:c4:c5:c5:4c:8f:
         98:64:fd:68:85:31:77:aa:58:3b:ce:be:6b:9f:8b:7c:04:78:
         9a:de:c6:0d:cd:8b:d1:ce:43:1c:cb:00:d2:49:a1:03:32:ad:
         19:00:03:f8:81:f7:7e:1f:23:7c:f4:3c:02:56:d1:44:29:70:
         23:8e:ca:ba:a6:64:fe:01:52:88:f7:20:c4:94:a8:a5:fd:dd:
         8b:e2:25:9c:69:a2:71:7f:b5:9d:e0:d5:b6:68:c5:9e:7b:7d:
         5e:a1:05:b7:b3:f2:43:c5:ad:ca:4c:63:39:81:09:d4:cd:54:
         ce:c0:07:86:a4:26:7e:3d:78:bf:db:57:1d:1f:c6:4a:88:b7:
         a0:e0:c0:8d
-----BEGIN CERTIFICATE-----
MIIDvDCCAqSgAwIBAgIRAJZviTdwIglWoePyG3WQRFAwDQYJKoZIhvcNAQELBQAw
IjEgMB4GA1UEAwwXQ29vbGVzdFByb2plY3RzIEJFIFRlc3QwHhcNMjQwMTI0MjEw
NTIxWhcNMjcwMTA4MjEwNTIxWjAvMS0wKwYDVQQDDCRhY2NvdW50MS5ibG9iLmNv
b2xlc3RhenVyZS5sb2NhbGhvc3QwggEiMA0GCSqGSIb3DQEBAQUAA4IBDwAwggEK
AoIBAQCXVUi3DeHiCebJf1shGau5oXn5a16Eu8M3DJLg1f7OQnOOT4+dZR193YFe
ujnzLGSkCttQYBlARwqzkg8kVYEgTN++EV/I03ertgrrrK00hI3ZNvaXE1pj5q6o
4O9ASOGU193JVpMcdaZ8UYZXzzeePtan/iawGndgxdE+Cp6NZ95pS8M+uqOv6DBf
6veYp4y2dENBFnfflXFuKz40k+mkla2ycLdnmtMzpd2TC8KzjJcUeZOtA64BDKcX
RHjCb5aRMI8kRWqwCHj3vpIQCLKQ4TQFQyuQhdQhMn6aIJlBu4neJD0OsOykkg84
V79kQMc8bZ/+CKx05ZyAR9oCJS2zAgMBAAGjgd8wgdwwCQYDVR0TBAIwADAdBgNV
HQ4EFgQUhjmhR89TYX66+dDtzxiVYM9R8CkwXQYDVR0jBFYwVIAUF7K/C3u8/FFk
V2wWgZv11+qOCKGhJqQkMCIxIDAeBgNVBAMMF0Nvb2xlc3RQcm9qZWN0cyBCRSBU
ZXN0ghQmUNYBHD4PfdhhDz4Pw+BnHZWISjATBgNVHSUEDDAKBggrBgEFBQcDATAL
BgNVHQ8EBAMCBaAwLwYDVR0RBCgwJoIkYWNjb3VudDEuYmxvYi5jb29sZXN0YXp1
cmUubG9jYWxob3N0MA0GCSqGSIb3DQEBCwUAA4IBAQA0peZ58hMB/jg8I4OVnDAF
G8M6MNTKV9gDJvJDBMqGpLi6f+o9NdGM1xq3VmSNIh5YQlhliO0TXkfsPq5Fs+tr
yMOX36pLDksAr6owt623+27SMDuA3wnGESZdhwYB5MoMWDKap2lkG0bYoLDGr9O/
C104d3zhW6lAxMXFTI+YZP1ohTF3qlg7zr5rn4t8BHia3sYNzYvRzkMcywDSSaED
Mq0ZAAP4gfd+HyN89DwCVtFEKXAjjsq6pmT+AVKI9yDElKil/d2L4iWcaaJxf7Wd
4NW2aMWee31eoQW3s/JDxa3KTGM5gQnUzVTOwAeGpCZ+PXi/21cdH8ZKiLeg4MCN
-----END CERTIFICATE-----
