Certificate:
    Data:
        Version: 3 (0x2)
        Serial Number:
            b0:24:82:1e:ca:92:3e:cb:8e:c6:6b:24:6c:86:fb:e8
        Signature Algorithm: sha256WithRSAEncryption
        Issuer: CN=CoolestProjects BE Test
        Validity
            Not Before: Jan 24 21:21:24 2024 GMT
            Not After : Jan  8 21:21:24 2027 GMT
        Subject: CN=backend.coolestprojects.localhost
        Subject Public Key Info:
            Public Key Algorithm: rsaEncryption
                RSA Public-Key: (2048 bit)
                Modulus:
                    00:a0:c4:e8:a8:55:bd:61:7b:79:0e:30:e7:66:05:
                    df:c8:f2:2b:df:46:a9:a5:73:b4:9f:ee:7f:5c:72:
                    24:86:3a:a3:94:b5:7f:31:51:f8:b6:e2:e3:52:d2:
                    0e:86:d5:0d:02:fd:29:68:0b:dd:98:40:6e:5b:96:
                    cf:2a:31:a5:46:7a:96:27:5c:ab:1b:00:12:1e:04:
                    c2:0d:c9:2f:3a:7e:31:c9:f5:34:08:a8:ae:d9:86:
                    ce:56:cc:50:e6:62:51:fe:d7:33:9e:34:17:8a:93:
                    b6:7b:34:4f:6d:e6:62:8f:8d:67:ae:29:59:2b:4b:
                    8d:33:4d:d6:db:29:40:99:b9:9a:76:4e:d8:c3:57:
                    a5:02:09:9a:dd:b5:08:5d:40:39:42:a2:ee:c4:18:
                    a0:1e:a0:be:56:5c:ba:7a:19:79:3f:08:bb:4d:9d:
                    a5:56:fa:7a:1f:53:40:33:b7:b6:f6:b7:d7:fd:ec:
                    0d:f1:5e:d4:d8:90:df:d4:a4:59:c3:22:64:19:c2:
                    db:e8:d8:b7:54:da:2f:cc:37:a8:21:3c:b2:02:59:
                    11:a1:55:61:72:f9:8b:5b:4c:e7:a8:e5:2a:26:85:
                    de:94:bc:a3:76:69:02:d3:04:7f:3a:fd:89:19:1d:
                    a1:04:eb:31:8e:00:c2:31:97:d9:47:c0:b5:93:57:
                    f6:85
                Exponent: 65537 (0x10001)
        X509v3 extensions:
            X509v3 Basic Constraints: 
                CA:FALSE
            X509v3 Subject Key Identifier: 
                17:52:C4:4F:7C:EA:2F:6B:33:BE:4E:89:EA:A8:02:FE:97:12:7F:DF
            X509v3 Authority Key Identifier: 
                keyid:17:B2:BF:0B:7B:BC:FC:51:64:57:6C:16:81:9B:F5:D7:EA:8E:08:A1
                DirName:/CN=CoolestProjects BE Test
                serial:26:50:D6:01:1C:3E:0F:7D:D8:61:0F:3E:0F:C3:E0:67:1D:95:88:4A

            X509v3 Extended Key Usage: 
                TLS Web Server Authentication
            X509v3 Key Usage: 
                Digital Signature, Key Encipherment
            X509v3 Subject Alternative Name: 
                DNS:backend.coolestprojects.localhost
    Signature Algorithm: sha256WithRSAEncryption
         20:04:fd:d1:7c:90:c1:d5:96:53:ef:9f:d9:5b:0a:33:16:bb:
         1e:eb:f6:3b:7b:99:5f:99:aa:bd:3f:d1:11:59:75:b5:39:86:
         f1:68:5d:4a:5e:74:fe:0a:c5:c0:f0:84:54:5d:c3:fd:ca:3b:
         a7:67:aa:36:41:a1:76:58:48:6c:5f:89:fe:1e:31:00:bd:8e:
         d4:e5:18:49:41:77:15:44:1a:d5:21:ed:e6:07:58:f9:a4:d0:
         1c:53:49:2a:28:cd:41:49:94:8f:29:63:f1:22:cb:47:b2:ba:
         eb:db:f5:46:2e:68:f0:de:05:bf:6b:a5:24:6a:4f:ac:16:7b:
         32:74:d5:86:51:70:34:7f:aa:06:a3:f3:c8:80:23:de:5c:16:
         11:8b:c3:83:6b:8d:c7:cd:f2:c0:66:00:b2:75:f9:ab:f2:6c:
         98:d5:f4:8b:1e:09:bc:95:c2:b7:03:6e:e8:d2:e0:50:c6:9a:
         3c:bf:01:dc:7d:f0:46:c7:03:72:f0:45:92:8d:46:96:18:d3:
         1f:2c:1a:77:b3:6e:14:da:c8:7d:4e:42:4a:a2:14:ad:2c:73:
         e4:17:6a:9d:1c:67:8a:36:a6:32:8b:c0:45:06:3f:6d:61:e8:
         d9:26:c0:5b:fd:93:f2:0b:f6:44:4e:5c:c1:ef:e2:af:03:a8:
         cf:07:c3:58
-----BEGIN CERTIFICATE-----
MIIDtjCCAp6gAwIBAgIRALAkgh7Kkj7LjsZrJGyG++gwDQYJKoZIhvcNAQELBQAw
IjEgMB4GA1UEAwwXQ29vbGVzdFByb2plY3RzIEJFIFRlc3QwHhcNMjQwMTI0MjEy
MTI0WhcNMjcwMTA4MjEyMTI0WjAsMSowKAYDVQQDDCFiYWNrZW5kLmNvb2xlc3Rw
cm9qZWN0cy5sb2NhbGhvc3QwggEiMA0GCSqGSIb3DQEBAQUAA4IBDwAwggEKAoIB
AQCgxOioVb1he3kOMOdmBd/I8ivfRqmlc7Sf7n9cciSGOqOUtX8xUfi24uNS0g6G
1Q0C/SloC92YQG5bls8qMaVGepYnXKsbABIeBMINyS86fjHJ9TQIqK7Zhs5WzFDm
YlH+1zOeNBeKk7Z7NE9t5mKPjWeuKVkrS40zTdbbKUCZuZp2TtjDV6UCCZrdtQhd
QDlCou7EGKAeoL5WXLp6GXk/CLtNnaVW+nofU0Azt7b2t9f97A3xXtTYkN/UpFnD
ImQZwtvo2LdU2i/MN6ghPLICWRGhVWFy+YtbTOeo5Somhd6UvKN2aQLTBH86/YkZ
HaEE6zGOAMIxl9lHwLWTV/aFAgMBAAGjgdwwgdkwCQYDVR0TBAIwADAdBgNVHQ4E
FgQUF1LET3zqL2szvk6J6qgC/pcSf98wXQYDVR0jBFYwVIAUF7K/C3u8/FFkV2wW
gZv11+qOCKGhJqQkMCIxIDAeBgNVBAMMF0Nvb2xlc3RQcm9qZWN0cyBCRSBUZXN0
ghQmUNYBHD4PfdhhDz4Pw+BnHZWISjATBgNVHSUEDDAKBggrBgEFBQcDATALBgNV
HQ8EBAMCBaAwLAYDVR0RBCUwI4IhYmFja2VuZC5jb29sZXN0cHJvamVjdHMubG9j
YWxob3N0MA0GCSqGSIb3DQEBCwUAA4IBAQAgBP3RfJDB1ZZT75/ZWwozFrse6/Y7
e5lfmaq9P9ERWXW1OYbxaF1KXnT+CsXA8IRUXcP9yjunZ6o2QaF2WEhsX4n+HjEA
vY7U5RhJQXcVRBrVIe3mB1j5pNAcU0kqKM1BSZSPKWPxIstHsrrr2/VGLmjw3gW/
a6Ukak+sFnsydNWGUXA0f6oGo/PIgCPeXBYRi8ODa43HzfLAZgCydfmr8myY1fSL
Hgm8lcK3A27o0uBQxpo8vwHcffBGxwNy8EWSjUaWGNMfLBp3s24U2sh9TkJKohSt
LHPkF2qdHGeKNqYyi8BFBj9tYejZJsBb/ZPyC/ZETlzB7+KvA6jPB8NY
-----END CERTIFICATE-----
