Certificate:
    Data:
        Version: 3 (0x2)
        Serial Number:
            b4:66:d4:4a:ce:95:64:21:10:5b:2e:ec:86:ae:c3:21
        Signature Algorithm: sha256WithRSAEncryption
        Issuer: CN=CoolestProjects BE Test
        Validity
            Not Before: Jan 24 21:20:33 2024 GMT
            Not After : Jan  8 21:20:33 2027 GMT
        Subject: CN=azure.coolestprojects.localhost
        Subject Public Key Info:
            Public Key Algorithm: rsaEncryption
                RSA Public-Key: (2048 bit)
                Modulus:
                    00:e2:7a:66:92:f2:88:22:cf:b6:6f:6f:3c:89:2f:
                    57:de:66:c2:47:c0:fb:e6:42:a9:bc:fe:26:15:4a:
                    de:5e:11:f1:8b:1b:23:48:e3:19:a8:99:02:e7:fd:
                    98:bd:67:24:06:9e:e7:fd:28:35:65:d4:2f:22:37:
                    46:17:d3:b3:ed:31:df:83:75:b9:6b:5a:e3:59:b8:
                    f1:12:ba:7f:8b:d7:7c:ca:dc:b3:cb:c3:76:87:dd:
                    a0:05:a1:8b:f5:26:fe:c4:2a:17:0e:0c:1e:8a:2b:
                    cd:e3:67:34:3c:50:a0:9f:22:7b:82:7e:03:1d:49:
                    64:10:e0:87:5a:ff:dd:2b:8d:d6:53:ff:63:79:e8:
                    16:e4:cb:b7:57:e0:7d:a8:36:e6:38:28:26:64:d3:
                    25:20:b1:6b:6e:14:a1:4f:31:b7:d6:e6:63:f5:f0:
                    c2:2a:46:7c:56:0d:00:51:04:de:13:46:99:e4:3c:
                    84:56:c9:d9:8f:19:37:77:21:c3:1a:9d:f5:96:49:
                    5e:35:97:8d:d6:be:ad:c2:81:20:b2:9f:cd:ea:2b:
                    ea:72:1f:13:b6:71:56:53:5a:4d:be:98:fe:d5:3d:
                    0d:72:36:99:56:53:6b:28:38:0b:28:f3:92:4a:0f:
                    13:3d:11:a9:21:52:40:44:66:5b:f7:0d:39:ba:61:
                    d5:1d
                Exponent: 65537 (0x10001)
        X509v3 extensions:
            X509v3 Basic Constraints: 
                CA:FALSE
            X509v3 Subject Key Identifier: 
                E8:3A:F0:18:CF:E4:8F:C2:53:04:11:52:B0:91:89:09:D2:CC:8F:FF
            X509v3 Authority Key Identifier: 
                keyid:17:B2:BF:0B:7B:BC:FC:51:64:57:6C:16:81:9B:F5:D7:EA:8E:08:A1
                DirName:/CN=CoolestProjects BE Test
                serial:26:50:D6:01:1C:3E:0F:7D:D8:61:0F:3E:0F:C3:E0:67:1D:95:88:4A

            X509v3 Extended Key Usage: 
                TLS Web Server Authentication
            X509v3 Key Usage: 
                Digital Signature, Key Encipherment
            X509v3 Subject Alternative Name: 
                DNS:azure.coolestprojects.localhost
    Signature Algorithm: sha256WithRSAEncryption
         70:a1:32:fd:6c:cd:15:f5:6b:1b:39:1f:31:b5:6d:f4:2d:32:
         52:c9:fc:16:ae:9c:b7:47:b0:b7:67:e9:3d:da:ae:2c:55:d4:
         95:70:9a:cd:c5:75:45:4c:d8:fc:49:27:cb:b5:3f:0a:0f:3d:
         9a:43:b2:37:ee:be:1b:c6:b2:a2:ce:a0:a7:14:1f:a3:46:d7:
         af:9e:fd:ee:22:ff:a0:4b:32:d7:9b:0b:29:8d:cf:74:27:06:
         48:0e:d6:a0:3b:93:c6:23:e0:34:10:b3:a3:0b:f0:b8:7f:81:
         93:a8:9a:79:1f:2d:4a:cb:22:44:54:2e:08:52:92:ce:c1:92:
         9c:f1:1f:30:bb:ab:c9:df:9e:d3:a5:41:13:a4:26:62:10:7a:
         aa:e9:2f:91:15:be:ed:3e:c1:97:44:29:ad:5a:a8:f8:9e:03:
         84:11:8e:40:5e:cf:30:1b:b6:74:d8:34:ea:5c:9a:f5:7e:d8:
         e1:9e:88:fc:f5:34:2d:39:e3:c1:1b:af:8a:46:62:39:f4:e8:
         d9:ee:1a:c4:c4:4b:34:55:f9:f4:30:9c:f1:6c:fa:c7:48:4f:
         fe:93:be:da:f6:f5:c0:e5:64:dc:0b:19:78:68:cc:d2:9c:d1:
         0d:99:ab:12:a8:f9:f4:7b:95:1f:68:6d:29:55:c2:e3:0e:2c:
         3f:b8:ae:84
-----BEGIN CERTIFICATE-----
MIIDsjCCApqgAwIBAgIRALRm1ErOlWQhEFsu7IauwyEwDQYJKoZIhvcNAQELBQAw
IjEgMB4GA1UEAwwXQ29vbGVzdFByb2plY3RzIEJFIFRlc3QwHhcNMjQwMTI0MjEy
MDMzWhcNMjcwMTA4MjEyMDMzWjAqMSgwJgYDVQQDDB9henVyZS5jb29sZXN0cHJv
amVjdHMubG9jYWxob3N0MIIBIjANBgkqhkiG9w0BAQEFAAOCAQ8AMIIBCgKCAQEA
4npmkvKIIs+2b288iS9X3mbCR8D75kKpvP4mFUreXhHxixsjSOMZqJkC5/2YvWck
Bp7n/Sg1ZdQvIjdGF9Oz7THfg3W5a1rjWbjxErp/i9d8ytyzy8N2h92gBaGL9Sb+
xCoXDgweiivN42c0PFCgnyJ7gn4DHUlkEOCHWv/dK43WU/9jeegW5Mu3V+B9qDbm
OCgmZNMlILFrbhShTzG31uZj9fDCKkZ8Vg0AUQTeE0aZ5DyEVsnZjxk3dyHDGp31
lkleNZeN1r6twoEgsp/N6ivqch8TtnFWU1pNvpj+1T0NcjaZVlNrKDgLKPOSSg8T
PRGpIVJARGZb9w05umHVHQIDAQABo4HaMIHXMAkGA1UdEwQCMAAwHQYDVR0OBBYE
FOg68BjP5I/CUwQRUrCRiQnSzI//MF0GA1UdIwRWMFSAFBeyvwt7vPxRZFdsFoGb
9dfqjgihoSakJDAiMSAwHgYDVQQDDBdDb29sZXN0UHJvamVjdHMgQkUgVGVzdIIU
JlDWARw+D33YYQ8+D8PgZx2ViEowEwYDVR0lBAwwCgYIKwYBBQUHAwEwCwYDVR0P
BAQDAgWgMCoGA1UdEQQjMCGCH2F6dXJlLmNvb2xlc3Rwcm9qZWN0cy5sb2NhbGhv
c3QwDQYJKoZIhvcNAQELBQADggEBAHChMv1szRX1axs5HzG1bfQtMlLJ/BaunLdH
sLdn6T3arixV1JVwms3FdUVM2PxJJ8u1PwoPPZpDsjfuvhvGsqLOoKcUH6NG16+e
/e4i/6BLMtebCymNz3QnBkgO1qA7k8Yj4DQQs6ML8Lh/gZOomnkfLUrLIkRULghS
ks7BkpzxHzC7q8nfntOlQROkJmIQeqrpL5EVvu0+wZdEKa1aqPieA4QRjkBezzAb
tnTYNOpcmvV+2OGeiPz1NC0548Ebr4pGYjn06NnuGsTESzRV+fQwnPFs+sdIT/6T
vtr29cDlZNwLGXhozNKc0Q2ZqxKo+fR7lR9obSlVwuMOLD+4roQ=
-----END CERTIFICATE-----
