Certificate:
    Data:
        Version: 3 (0x2)
        Serial Number:
            24:4b:6a:3b:8f:23:f3:d7:1a:da:a5:7f:c3:6d:e8:58
        Signature Algorithm: sha256WithRSAEncryption
        Issuer: CN=CoolestProjects BE Test
        Validity
            Not Before: Feb 20 19:39:04 2021 GMT
            Not After : May 26 19:39:04 2023 GMT
        Subject: CN=azure.coolestprojects.localhost
        Subject Public Key Info:
            Public Key Algorithm: rsaEncryption
                RSA Public-Key: (2048 bit)
                Modulus:
                    00:97:56:ea:f3:38:03:3d:1f:0a:4a:c5:98:4a:a1:
                    c6:59:54:e3:c9:fa:1d:c7:98:4f:f9:4a:7a:be:78:
                    3c:32:dc:e8:1c:1e:cb:c8:f5:01:9c:e6:5e:ac:5f:
                    69:f4:36:d4:06:be:f7:07:b0:da:65:08:69:40:14:
                    6f:b6:10:e8:2d:75:c9:8d:f1:4c:8c:ca:47:c7:f9:
                    45:01:1e:5a:fb:03:94:8a:99:1c:d0:40:34:e4:a8:
                    f4:9d:0a:ae:df:cf:b4:fe:00:3d:e0:17:42:49:77:
                    20:21:81:1e:5d:58:67:18:88:66:5f:b8:72:f4:4e:
                    03:57:26:e9:24:12:dc:cf:dd:ab:5c:a6:03:09:8b:
                    78:f6:3b:9f:34:69:f9:2d:4d:bb:6f:98:93:26:0a:
                    fe:30:d8:bc:a6:07:ad:84:fa:04:e6:ea:88:0d:be:
                    29:a7:0e:fa:f3:cb:8d:8d:62:67:3f:0f:fd:08:74:
                    e2:a0:be:5e:09:04:44:d7:c8:7c:69:1e:d3:81:8c:
                    69:b9:a3:3f:d8:0b:0c:d4:e4:f4:6b:f8:4c:8e:7c:
                    0a:a8:fa:42:7d:10:24:51:e9:85:3e:f1:7f:46:ce:
                    d0:75:ff:79:95:d3:52:ea:52:ac:be:0d:ef:1a:82:
                    7e:af:94:13:15:0d:ac:02:28:dc:c4:b9:e5:23:0a:
                    ba:5f
                Exponent: 65537 (0x10001)
        X509v3 extensions:
            X509v3 Basic Constraints: 
                CA:FALSE
            X509v3 Subject Key Identifier: 
                6D:A0:92:6F:C4:AC:F7:3F:E3:A3:2A:BA:1E:71:80:62:32:B9:DA:AB
            X509v3 Authority Key Identifier: 
                keyid:17:B2:BF:0B:7B:BC:FC:51:64:57:6C:16:81:9B:F5:D7:EA:8E:08:A1
                DirName:/CN=CoolestProjects BE Test
                serial:26:50:D6:01:1C:3E:0F:7D:D8:61:0F:3E:0F:C3:E0:67:1D:95:88:4A

            X509v3 Extended Key Usage: 
                TLS Web Server Authentication
            X509v3 Key Usage: 
                Digital Signature, Key Encipherment
            X509v3 Subject Alternative Name: 
                DNS:azure.coolestprojects.localhost
    Signature Algorithm: sha256WithRSAEncryption
         5c:12:3d:16:b9:12:67:7f:96:2b:59:1e:f1:55:b2:35:9a:6f:
         a0:ef:9e:47:09:b4:93:75:70:29:f1:35:1e:3f:7b:ac:14:d9:
         2c:9b:b9:ec:ef:1f:1c:a7:0c:e0:8d:73:a4:27:d3:0a:ef:21:
         51:ec:6a:54:e8:24:36:c4:a9:15:47:50:0d:7a:c4:95:2c:a0:
         08:ac:a8:c7:31:61:9c:b0:8d:9e:3d:53:85:bc:4d:bf:c8:c8:
         0d:1b:e7:cb:c7:e8:f5:b2:17:9d:90:f2:58:24:4b:fe:91:cd:
         ee:53:3f:03:fb:4b:ef:a5:fc:51:c4:12:42:0f:2a:37:1c:b8:
         93:56:05:64:98:62:52:7d:9f:57:40:69:45:3c:b5:54:a7:be:
         29:50:c4:57:0a:b9:0f:cc:6a:7b:ec:69:93:2a:e9:ec:43:c0:
         12:bc:43:2c:b8:77:56:3c:e1:6f:5b:dc:4c:02:fb:f5:29:25:
         b8:22:2f:b8:da:90:20:40:28:df:23:0d:66:6b:60:01:ef:e2:
         04:8c:5d:f5:37:4f:fb:1a:a5:ca:f2:b2:8a:e7:ed:70:e5:12:
         dc:d0:ab:0e:8d:29:c5:aa:7d:d3:d4:06:97:5c:fa:de:50:16:
         40:ae:27:19:88:7e:57:96:29:f2:86:3b:36:b1:ae:f6:7f:94:
         18:dc:83:5d
-----BEGIN CERTIFICATE-----
MIIDsTCCApmgAwIBAgIQJEtqO48j89ca2qV/w23oWDANBgkqhkiG9w0BAQsFADAi
MSAwHgYDVQQDDBdDb29sZXN0UHJvamVjdHMgQkUgVGVzdDAeFw0yMTAyMjAxOTM5
MDRaFw0yMzA1MjYxOTM5MDRaMCoxKDAmBgNVBAMMH2F6dXJlLmNvb2xlc3Rwcm9q
ZWN0cy5sb2NhbGhvc3QwggEiMA0GCSqGSIb3DQEBAQUAA4IBDwAwggEKAoIBAQCX
VurzOAM9HwpKxZhKocZZVOPJ+h3HmE/5Snq+eDwy3OgcHsvI9QGc5l6sX2n0NtQG
vvcHsNplCGlAFG+2EOgtdcmN8UyMykfH+UUBHlr7A5SKmRzQQDTkqPSdCq7fz7T+
AD3gF0JJdyAhgR5dWGcYiGZfuHL0TgNXJukkEtzP3atcpgMJi3j2O580afktTbtv
mJMmCv4w2LymB62E+gTm6ogNvimnDvrzy42NYmc/D/0IdOKgvl4JBETXyHxpHtOB
jGm5oz/YCwzU5PRr+EyOfAqo+kJ9ECRR6YU+8X9GztB1/3mV01LqUqy+De8agn6v
lBMVDawCKNzEueUjCrpfAgMBAAGjgdowgdcwCQYDVR0TBAIwADAdBgNVHQ4EFgQU
baCSb8Ss9z/joyq6HnGAYjK52qswXQYDVR0jBFYwVIAUF7K/C3u8/FFkV2wWgZv1
1+qOCKGhJqQkMCIxIDAeBgNVBAMMF0Nvb2xlc3RQcm9qZWN0cyBCRSBUZXN0ghQm
UNYBHD4PfdhhDz4Pw+BnHZWISjATBgNVHSUEDDAKBggrBgEFBQcDATALBgNVHQ8E
BAMCBaAwKgYDVR0RBCMwIYIfYXp1cmUuY29vbGVzdHByb2plY3RzLmxvY2FsaG9z
dDANBgkqhkiG9w0BAQsFAAOCAQEAXBI9FrkSZ3+WK1ke8VWyNZpvoO+eRwm0k3Vw
KfE1Hj97rBTZLJu57O8fHKcM4I1zpCfTCu8hUexqVOgkNsSpFUdQDXrElSygCKyo
xzFhnLCNnj1ThbxNv8jIDRvny8fo9bIXnZDyWCRL/pHN7lM/A/tL76X8UcQSQg8q
Nxy4k1YFZJhiUn2fV0BpRTy1VKe+KVDEVwq5D8xqe+xpkyrp7EPAErxDLLh3Vjzh
b1vcTAL79SkluCIvuNqQIEAo3yMNZmtgAe/iBIxd9TdP+xqlyvKyiuftcOUS3NCr
Do0pxap909QGl1z63lAWQK4nGYh+V5Yp8oY7NrGu9n+UGNyDXQ==
-----END CERTIFICATE-----
