Certificate:
    Data:
        Version: 3 (0x2)
        Serial Number:
            a9:58:b1:d3:d9:71:0f:f5:e2:26:04:b5:54:a6:09:6f
        Signature Algorithm: sha256WithRSAEncryption
        Issuer: CN=CoolestProjects BE Test
        Validity
            Not Before: Feb  2 17:40:26 2021 GMT
            Not After : May  8 17:40:26 2023 GMT
        Subject: CN=app.coolestprojects.localhost
        Subject Public Key Info:
            Public Key Algorithm: rsaEncryption
                RSA Public-Key: (2048 bit)
                Modulus:
                    00:af:38:83:5e:97:0d:a1:c7:5f:ef:04:82:d5:02:
                    51:50:06:71:ac:75:0f:50:3d:e0:a7:eb:85:66:34:
                    d1:a5:59:ed:8c:92:cd:90:66:7d:3b:98:2a:d0:cf:
                    e4:a5:b6:b6:3d:19:8b:94:26:d6:7c:97:fe:fa:ea:
                    5a:4d:42:9f:5a:91:28:32:0b:00:9a:80:02:c2:73:
                    2b:67:ea:57:d8:75:3a:8c:9f:77:a0:03:27:d6:eb:
                    f6:91:5f:29:e6:1f:79:5a:8b:c8:c6:ed:95:80:3b:
                    7a:50:c4:67:03:86:01:bd:4d:8f:67:57:62:77:33:
                    16:b5:43:34:ea:2b:cc:72:69:a0:87:ff:55:5e:7a:
                    c8:bd:cd:e9:97:c0:9c:3a:d3:85:4e:5f:01:fb:87:
                    24:6a:ca:47:65:73:30:82:01:82:34:fc:de:dd:2e:
                    9d:9e:41:a6:0f:5c:10:56:37:c3:a6:e4:46:59:a3:
                    93:77:95:21:ff:76:1c:ce:5d:b7:bd:ca:b1:82:85:
                    f7:0e:34:94:e1:8d:1c:3c:f7:a0:5d:b0:84:94:03:
                    dc:f4:e0:d1:5c:18:13:f7:5c:9d:99:6c:7a:28:6c:
                    74:94:ed:6f:1a:b9:d9:73:11:35:68:b2:01:61:21:
                    cb:78:18:34:92:f1:21:6b:f6:f4:39:07:4a:bd:7b:
                    cb:5d
                Exponent: 65537 (0x10001)
        X509v3 extensions:
            X509v3 Basic Constraints: 
                CA:FALSE
            X509v3 Subject Key Identifier: 
                97:EF:C0:92:46:D4:73:5D:30:DC:7B:8D:19:32:3E:F6:9D:24:41:C5
            X509v3 Authority Key Identifier: 
                keyid:17:B2:BF:0B:7B:BC:FC:51:64:57:6C:16:81:9B:F5:D7:EA:8E:08:A1
                DirName:/CN=CoolestProjects BE Test
                serial:26:50:D6:01:1C:3E:0F:7D:D8:61:0F:3E:0F:C3:E0:67:1D:95:88:4A

            X509v3 Extended Key Usage: 
                TLS Web Server Authentication
            X509v3 Key Usage: 
                Digital Signature, Key Encipherment
            X509v3 Subject Alternative Name: 
                DNS:app.coolestprojects.localhost
    Signature Algorithm: sha256WithRSAEncryption
         57:84:cc:9a:3b:17:9b:d2:e9:60:4e:30:48:70:b5:d0:d6:5e:
         90:8e:4c:f9:2b:34:55:74:1c:4b:03:cb:34:2e:ce:6c:39:57:
         52:7a:3b:2d:f7:4b:68:e6:2c:47:a2:51:d8:e3:1a:c8:b4:98:
         a4:5e:71:24:4f:62:10:16:58:85:21:d3:a3:d9:4d:e1:f7:83:
         da:b3:15:53:a5:4f:fb:3f:8d:b5:37:68:e1:a7:1b:40:eb:2c:
         ea:76:5a:ce:f2:aa:e6:9a:7b:3d:c1:5e:e7:c8:c2:c2:0a:2d:
         ec:27:33:a7:1d:7d:c5:f5:fd:0d:39:91:27:ae:d7:3b:04:59:
         b6:56:d6:19:51:62:4c:78:e6:0f:00:18:59:2a:87:1f:f1:ff:
         db:74:ac:cc:51:28:41:a7:8e:21:20:28:40:f0:1b:e9:18:21:
         70:45:b5:96:96:fd:83:3c:e6:eb:cc:fc:9b:29:4c:6b:08:cf:
         b5:2f:ec:54:e9:1f:1b:91:fa:ba:9c:8a:16:01:7b:3e:22:4e:
         9e:53:91:d9:a7:79:37:fd:14:91:68:56:57:cf:43:73:3e:75:
         1a:3b:1b:67:7f:59:b7:89:ea:9b:3a:7a:fe:4e:59:e1:92:01:
         6e:ae:66:97:19:f9:cd:fa:1a:0d:48:ee:a9:ad:e1:e6:d8:1e:
         66:9e:20:e9
-----BEGIN CERTIFICATE-----
MIIDrjCCApagAwIBAgIRAKlYsdPZcQ/14iYEtVSmCW8wDQYJKoZIhvcNAQELBQAw
IjEgMB4GA1UEAwwXQ29vbGVzdFByb2plY3RzIEJFIFRlc3QwHhcNMjEwMjAyMTc0
MDI2WhcNMjMwNTA4MTc0MDI2WjAoMSYwJAYDVQQDDB1hcHAuY29vbGVzdHByb2pl
Y3RzLmxvY2FsaG9zdDCCASIwDQYJKoZIhvcNAQEBBQADggEPADCCAQoCggEBAK84
g16XDaHHX+8EgtUCUVAGcax1D1A94KfrhWY00aVZ7YySzZBmfTuYKtDP5KW2tj0Z
i5Qm1nyX/vrqWk1Cn1qRKDILAJqAAsJzK2fqV9h1Ooyfd6ADJ9br9pFfKeYfeVqL
yMbtlYA7elDEZwOGAb1Nj2dXYnczFrVDNOorzHJpoIf/VV56yL3N6ZfAnDrThU5f
AfuHJGrKR2VzMIIBgjT83t0unZ5Bpg9cEFY3w6bkRlmjk3eVIf92HM5dt73KsYKF
9w40lOGNHDz3oF2whJQD3PTg0VwYE/dcnZlseihsdJTtbxq52XMRNWiyAWEhy3gY
NJLxIWv29DkHSr17y10CAwEAAaOB2DCB1TAJBgNVHRMEAjAAMB0GA1UdDgQWBBSX
78CSRtRzXTDce40ZMj72nSRBxTBdBgNVHSMEVjBUgBQXsr8Le7z8UWRXbBaBm/XX
6o4IoaEmpCQwIjEgMB4GA1UEAwwXQ29vbGVzdFByb2plY3RzIEJFIFRlc3SCFCZQ
1gEcPg992GEPPg/D4GcdlYhKMBMGA1UdJQQMMAoGCCsGAQUFBwMBMAsGA1UdDwQE
AwIFoDAoBgNVHREEITAfgh1hcHAuY29vbGVzdHByb2plY3RzLmxvY2FsaG9zdDAN
BgkqhkiG9w0BAQsFAAOCAQEAV4TMmjsXm9LpYE4wSHC10NZekI5M+Ss0VXQcSwPL
NC7ObDlXUno7LfdLaOYsR6JR2OMayLSYpF5xJE9iEBZYhSHTo9lN4feD2rMVU6VP
+z+NtTdo4acbQOss6nZazvKq5pp7PcFe58jCwgot7Cczpx19xfX9DTmRJ67XOwRZ
tlbWGVFiTHjmDwAYWSqHH/H/23SszFEoQaeOISAoQPAb6RghcEW1lpb9gzzm68z8
mylMawjPtS/sVOkfG5H6upyKFgF7PiJOnlOR2ad5N/0UkWhWV89Dcz51GjsbZ39Z
t4nqmzp6/k5Z4ZIBbq5mlxn5zfoaDUjuqa3h5tgeZp4g6Q==
-----END CERTIFICATE-----
